; Function Attrs: mustprogress uwtable
define internal fastcc noundef zeroext i8 @_ZN3ue2L10decodeCtrlEc(i8 noundef signext %0) unnamed_addr #0 personality ptr @__gxx_personality_v0 {
  %2 = alloca %"class.std::__cxx11::basic_string", align 8
  %3 = alloca %"class.std::allocator.2", align 1
  %.not = icmp sgt i8 %0, -1
  br i1 %.not, label %18, label %4

4:                                                ; preds = %1
  %5 = tail call ptr @__cxa_allocate_exception(i64 56) #24
  call void @llvm.lifetime.start.p0(i64 1, ptr nonnull %3) #24
  invoke void @_ZNSt7__cxx1112basic_stringIcSt11char_traitsIcESaIcEEC2EPKcRKS3_(ptr noundef nonnull align 8 dereferenceable(32) %2, ptr noundef nonnull @.str.10, ptr noundef nonnull align 1 dereferenceable(1) %3)
          to label %6 unwind label %_ZNSt7__cxx1112basic_stringIcSt11char_traitsIcESaIcEED2Ev.exit.thread

6:                                                ; preds = %4
  invoke void @_ZN3ue217LocatedParseErrorC2ENSt7__cxx1112basic_stringIcSt11char_traitsIcESaIcEEE(ptr noundef nonnull align 8 dereferenceable(49) %5, ptr noundef nonnull %2)
          to label %7 unwind label %9

7:                                                ; preds = %6
  invoke void @__cxa_throw(ptr nonnull %5, ptr nonnull @_ZTIN3ue217LocatedParseErrorE, ptr nonnull @_ZN3ue217LocatedParseErrorD1Ev) #27
          to label %24 unwind label %9

_ZNSt7__cxx1112basic_stringIcSt11char_traitsIcESaIcEED2Ev.exit.thread: ; preds = %4
  %8 = landingpad { ptr, i32 }
          cleanup
  call void @llvm.lifetime.end.p0(i64 1, ptr nonnull %3) #24
  br label %17

9:                                                ; preds = %7, %6
  %.0 = phi i1 [ false, %7 ], [ true, %6 ]
  %10 = landingpad { ptr, i32 }
          cleanup
  %11 = load ptr, ptr %2, align 8
  %12 = getelementptr inbounds nuw i8, ptr %2, i64 16
  %13 = icmp eq ptr %11, %12
  br i1 %13, label %_ZNKSt7__cxx1112basic_stringIcSt11char_traitsIcESaIcEE11_M_is_localEv.exit.thread.i.i, label %_ZNSt7__cxx1112basic_stringIcSt11char_traitsIcESaIcEED2Ev.exit

_ZNKSt7__cxx1112basic_stringIcSt11char_traitsIcESaIcEE11_M_is_localEv.exit.thread.i.i: ; preds = %9
  %14 = getelementptr inbounds nuw i8, ptr %2, i64 8
  %15 = load i64, ptr %14, align 8
  %16 = icmp ult i64 %15, 16
  call void @llvm.assume(i1 %16)
  call void @llvm.lifetime.end.p0(i64 1, ptr nonnull %3) #24
  br i1 %.0, label %17, label %23

_ZNSt7__cxx1112basic_stringIcSt11char_traitsIcESaIcEED2Ev.exit: ; preds = %9
  call void @_ZdlPv(ptr noundef %11) #26
  call void @llvm.lifetime.end.p0(i64 1, ptr nonnull %3) #24
  br i1 %.0, label %17, label %23

17:                                               ; preds = %_ZNKSt7__cxx1112basic_stringIcSt11char_traitsIcESaIcEE11_M_is_localEv.exit.thread.i.i, %_ZNSt7__cxx1112basic_stringIcSt11char_traitsIcESaIcEED2Ev.exit.thread, %_ZNSt7__cxx1112basic_stringIcSt11char_traitsIcESaIcEED2Ev.exit
  %.pn10 = phi { ptr, i32 } [ %8, %_ZNSt7__cxx1112basic_stringIcSt11char_traitsIcESaIcEED2Ev.exit.thread ], [ %10, %_ZNSt7__cxx1112basic_stringIcSt11char_traitsIcESaIcEED2Ev.exit ], [ %10, %_ZNKSt7__cxx1112basic_stringIcSt11char_traitsIcESaIcEE11_M_is_localEv.exit.thread.i.i ]
  call void @__cxa_free_exception(ptr %5) #24
  br label %23

18:                                               ; preds = %1
  %19 = add nsw i8 %0, -123
  %20 = icmp ult i8 %19, -26
  %21 = add nsw i8 %0, -32
  %.0.i = select i1 %20, i8 %0, i8 %21
  %22 = xor i8 %.0.i, 64
  ret i8 %22

23:                                               ; preds = %_ZNKSt7__cxx1112basic_stringIcSt11char_traitsIcESaIcEE11_M_is_localEv.exit.thread.i.i, %_ZNSt7__cxx1112basic_stringIcSt11char_traitsIcESaIcEED2Ev.exit, %17
  %.pn9 = phi { ptr, i32 } [ %10, %_ZNSt7__cxx1112basic_stringIcSt11char_traitsIcESaIcEED2Ev.exit ], [ %.pn10, %17 ], [ %10, %_ZNKSt7__cxx1112basic_stringIcSt11char_traitsIcESaIcEE11_M_is_localEv.exit.thread.i.i ]
  resume { ptr, i32 } %.pn9

24:                                               ; preds = %7
  unreachable
}